target datalayout = "e-m:e-p270:32:32-p271:32:32-p272:64:64-i64:64-i128:128-f80:128-n8:16:32:64-S128"
target triple = "x86_64-pc-linux-gnu"

%struct.AVFilterContext = type { ptr, ptr, ptr, ptr, ptr, i32, ptr, ptr, i32, ptr, ptr, i32, i32, ptr, ptr, ptr, ptr, i32, ptr, i32, i32 }
%struct.DeshakeContext = type { ptr, [129 x [129 x i32]], ptr, i32, ptr, i32, i32, i32, i32, i32, i32, ptr, %struct.Transform, i32, ptr, %struct.Transform, i32, i32, i32, i32, ptr, i32, ptr }
%struct.Transform = type { %struct.MotionVector, double, double }
%struct.MotionVector = type { double, double }

@.str.9 = private unnamed_addr constant [2 x i8] c"w\00", align 1
@.str.41 = private unnamed_addr constant [29 x i8] c"rx must be a multiple of 16\0A\00", align 1
@.str.42 = private unnamed_addr constant [105 x i8] c"Ori x, Avg x, Fin x, Ori y, Avg y, Fin y, Ori angle, Avg angle, Fin angle, Ori zoom, Avg zoom, Fin zoom\0A\00", align 1
@.str.43 = private unnamed_addr constant [96 x i8] c"cx: %d, cy: %d, cw: %d, ch: %d, rx: %d, ry: %d, edge: %d blocksize: %d contrast: %d search: %d\0A\00", align 1

; Function Attrs: alwaysinline nounwind willreturn memory(none) uwtable
define internal i32 @av_clip_c(i32 noundef %0, i32 noundef %1, i32 noundef %2) #9 {
  %4 = alloca i32, align 4
  %5 = alloca i32, align 4
  %6 = alloca i32, align 4
  %7 = alloca i32, align 4
  store i32 %0, ptr %5, align 4, !tbaa !59
  store i32 %1, ptr %6, align 4, !tbaa !59
  store i32 %2, ptr %7, align 4, !tbaa !59
  %8 = load i32, ptr %5, align 4, !tbaa !59
  %9 = load i32, ptr %6, align 4, !tbaa !59
  %10 = icmp slt i32 %8, %9
  br i1 %10, label %11, label %13

11:                                               ; preds = %3
  %12 = load i32, ptr %6, align 4, !tbaa !59
  store i32 %12, ptr %4, align 4
  br label %21

13:                                               ; preds = %3
  %14 = load i32, ptr %5, align 4, !tbaa !59
  %15 = load i32, ptr %7, align 4, !tbaa !59
  %16 = icmp sgt i32 %14, %15
  br i1 %16, label %17, label %19

17:                                               ; preds = %13
  %18 = load i32, ptr %7, align 4, !tbaa !59
  store i32 %18, ptr %4, align 4
  br label %21

19:                                               ; preds = %13
  %20 = load i32, ptr %5, align 4, !tbaa !59
  store i32 %20, ptr %4, align 4
  br label %21

21:                                               ; preds = %19, %17, %11
  %22 = load i32, ptr %4, align 4
  ret i32 %22
}

; Function Attrs: cold nounwind optsize uwtable
define internal i32 @init(ptr noundef %0) #0 {
  %2 = alloca i32, align 4
  %3 = alloca ptr, align 8
  %4 = alloca ptr, align 8
  %5 = alloca i32, align 4
  store ptr %0, ptr %3, align 8, !tbaa !4
  call void @llvm.lifetime.start.p0(i64 8, ptr %4) #10
  %6 = load ptr, ptr %3, align 8, !tbaa !4
  %7 = getelementptr inbounds nuw %struct.AVFilterContext, ptr %6, i32 0, i32 9
  %8 = load ptr, ptr %7, align 8, !tbaa !9
  store ptr %8, ptr %4, align 8, !tbaa !22
  %9 = load ptr, ptr %4, align 8, !tbaa !22
  %10 = getelementptr inbounds nuw %struct.DeshakeContext, ptr %9, i32 0, i32 13
  store i32 20, ptr %10, align 8, !tbaa !24
  %11 = load ptr, ptr %4, align 8, !tbaa !22
  %12 = getelementptr inbounds nuw %struct.DeshakeContext, ptr %11, i32 0, i32 8
  %13 = load i32, ptr %12, align 4, !tbaa !31
  %14 = sdiv i32 %13, 2
  store i32 %14, ptr %12, align 4, !tbaa !31
  %15 = load ptr, ptr %4, align 8, !tbaa !22
  %16 = getelementptr inbounds nuw %struct.DeshakeContext, ptr %15, i32 0, i32 8
  %17 = load i32, ptr %16, align 4, !tbaa !31
  %18 = call i32 @av_clip_c(i32 noundef %17, i32 noundef 4, i32 noundef 128) #11
  %19 = load ptr, ptr %4, align 8, !tbaa !22
  %20 = getelementptr inbounds nuw %struct.DeshakeContext, ptr %19, i32 0, i32 8
  store i32 %18, ptr %20, align 4, !tbaa !31
  %21 = load ptr, ptr %4, align 8, !tbaa !22
  %22 = getelementptr inbounds nuw %struct.DeshakeContext, ptr %21, i32 0, i32 5
  %23 = load i32, ptr %22, align 8, !tbaa !32
  %24 = srem i32 %23, 16
  %25 = icmp ne i32 %24, 0
  br i1 %25, label %26, label %28

26:                                               ; preds = %1
  %27 = load ptr, ptr %3, align 8, !tbaa !4
  call void (ptr, i32, ptr, ...) @av_log(ptr noundef %27, i32 noundef 16, ptr noundef @.str.41)
  store i32 -1163346256, ptr %2, align 4
  store i32 1, ptr %5, align 4
  br label %107

28:                                               ; preds = %1
  %29 = load ptr, ptr %4, align 8, !tbaa !22
  %30 = getelementptr inbounds nuw %struct.DeshakeContext, ptr %29, i32 0, i32 20
  %31 = load ptr, ptr %30, align 8, !tbaa !33
  %32 = icmp ne ptr %31, null
  br i1 %32, label %33, label %40

33:                                               ; preds = %28
  %34 = load ptr, ptr %4, align 8, !tbaa !22
  %35 = getelementptr inbounds nuw %struct.DeshakeContext, ptr %34, i32 0, i32 20
  %36 = load ptr, ptr %35, align 8, !tbaa !33
  %37 = call ptr @avpriv_fopen_utf8(ptr noundef %36, ptr noundef @.str.9)
  %38 = load ptr, ptr %4, align 8, !tbaa !22
  %39 = getelementptr inbounds nuw %struct.DeshakeContext, ptr %38, i32 0, i32 14
  store ptr %37, ptr %39, align 8, !tbaa !34
  br label %40

40:                                               ; preds = %33, %28
  %41 = load ptr, ptr %4, align 8, !tbaa !22
  %42 = getelementptr inbounds nuw %struct.DeshakeContext, ptr %41, i32 0, i32 14
  %43 = load ptr, ptr %42, align 8, !tbaa !34
  %44 = icmp ne ptr %43, null
  br i1 %44, label %45, label %50

45:                                               ; preds = %40
  %46 = load ptr, ptr %4, align 8, !tbaa !22
  %47 = getelementptr inbounds nuw %struct.DeshakeContext, ptr %46, i32 0, i32 14
  %48 = load ptr, ptr %47, align 8, !tbaa !34
  %49 = call i64 @fwrite(ptr noundef @.str.42, i64 noundef 1, i64 noundef 104, ptr noundef %48)
  br label %50

50:                                               ; preds = %45, %40
  %51 = load ptr, ptr %4, align 8, !tbaa !22
  %52 = getelementptr inbounds nuw %struct.DeshakeContext, ptr %51, i32 0, i32 18
  %53 = load i32, ptr %52, align 8, !tbaa !35
  %54 = icmp sgt i32 %53, 0
  br i1 %54, label %55, label %72

55:                                               ; preds = %50
  %56 = load ptr, ptr %4, align 8, !tbaa !22
  %57 = getelementptr inbounds nuw %struct.DeshakeContext, ptr %56, i32 0, i32 18
  %58 = load i32, ptr %57, align 8, !tbaa !35
  %59 = load ptr, ptr %4, align 8, !tbaa !22
  %60 = getelementptr inbounds nuw %struct.DeshakeContext, ptr %59, i32 0, i32 18
  %61 = load i32, ptr %60, align 8, !tbaa !35
  %62 = and i32 %61, -16
  %63 = sub nsw i32 %58, %62
  %64 = load ptr, ptr %4, align 8, !tbaa !22
  %65 = getelementptr inbounds nuw %struct.DeshakeContext, ptr %64, i32 0, i32 16
  %66 = load i32, ptr %65, align 8, !tbaa !36
  %67 = add nsw i32 %66, %63
  store i32 %67, ptr %65, align 8, !tbaa !36
  %68 = load ptr, ptr %4, align 8, !tbaa !22
  %69 = getelementptr inbounds nuw %struct.DeshakeContext, ptr %68, i32 0, i32 18
  %70 = load i32, ptr %69, align 8, !tbaa !35
  %71 = and i32 %70, -16
  store i32 %71, ptr %69, align 8, !tbaa !35
  br label %72

72:                                               ; preds = %55, %50
  %73 = load ptr, ptr %4, align 8, !tbaa !22
  %74 = getelementptr inbounds nuw %struct.DeshakeContext, ptr %73, i32 0, i32 22
  store ptr @deshake_transform_c, ptr %74, align 8, !tbaa !37
  %75 = load ptr, ptr %3, align 8, !tbaa !4
  %76 = load ptr, ptr %4, align 8, !tbaa !22
  %77 = getelementptr inbounds nuw %struct.DeshakeContext, ptr %76, i32 0, i32 18
  %78 = load i32, ptr %77, align 8, !tbaa !35
  %79 = load ptr, ptr %4, align 8, !tbaa !22
  %80 = getelementptr inbounds nuw %struct.DeshakeContext, ptr %79, i32 0, i32 19
  %81 = load i32, ptr %80, align 4, !tbaa !38
  %82 = load ptr, ptr %4, align 8, !tbaa !22
  %83 = getelementptr inbounds nuw %struct.DeshakeContext, ptr %82, i32 0, i32 16
  %84 = load i32, ptr %83, align 8, !tbaa !36
  %85 = load ptr, ptr %4, align 8, !tbaa !22
  %86 = getelementptr inbounds nuw %struct.DeshakeContext, ptr %85, i32 0, i32 17
  %87 = load i32, ptr %86, align 4, !tbaa !39
  %88 = load ptr, ptr %4, align 8, !tbaa !22
  %89 = getelementptr inbounds nuw %struct.DeshakeContext, ptr %88, i32 0, i32 5
  %90 = load i32, ptr %89, align 8, !tbaa !32
  %91 = load ptr, ptr %4, align 8, !tbaa !22
  %92 = getelementptr inbounds nuw %struct.DeshakeContext, ptr %91, i32 0, i32 6
  %93 = load i32, ptr %92, align 4, !tbaa !40
  %94 = load ptr, ptr %4, align 8, !tbaa !22
  %95 = getelementptr inbounds nuw %struct.DeshakeContext, ptr %94, i32 0, i32 7
  %96 = load i32, ptr %95, align 8, !tbaa !41
  %97 = load ptr, ptr %4, align 8, !tbaa !22
  %98 = getelementptr inbounds nuw %struct.DeshakeContext, ptr %97, i32 0, i32 8
  %99 = load i32, ptr %98, align 4, !tbaa !31
  %100 = mul nsw i32 %99, 2
  %101 = load ptr, ptr %4, align 8, !tbaa !22
  %102 = getelementptr inbounds nuw %struct.DeshakeContext, ptr %101, i32 0, i32 9
  %103 = load i32, ptr %102, align 8, !tbaa !42
  %104 = load ptr, ptr %4, align 8, !tbaa !22
  %105 = getelementptr inbounds nuw %struct.DeshakeContext, ptr %104, i32 0, i32 10
  %106 = load i32, ptr %105, align 4, !tbaa !43
  call void (ptr, i32, ptr, ...) @av_log(ptr noundef %75, i32 noundef 40, ptr noundef @.str.43, i32 noundef %78, i32 noundef %81, i32 noundef %84, i32 noundef %87, i32 noundef %90, i32 noundef %93, i32 noundef %96, i32 noundef %100, i32 noundef %103, i32 noundef %106)
  store i32 0, ptr %2, align 4
  store i32 1, ptr %5, align 4
  br label %107

107:                                              ; preds = %72, %26
  call void @llvm.lifetime.end.p0(i64 8, ptr %4) #10
  %108 = load i32, ptr %2, align 4
  ret i32 %108
}