; Function Attrs: cold nounwind optsize uwtable
define internal range(i32 -1163346256, 1) i32 @init(ptr noundef %0) #0 {
  %2 = getelementptr inbounds nuw i8, ptr %0, i64 72
  %3 = load ptr, ptr %2, align 8, !tbaa !4
  %4 = getelementptr inbounds nuw i8, ptr %3, i64 66664
  store i32 20, ptr %4, align 8, !tbaa !20
  %5 = getelementptr inbounds nuw i8, ptr %3, i64 66612
  %6 = load i32, ptr %5, align 4, !tbaa !27
  %7 = sdiv i32 %6, 2
  %8 = tail call i32 @llvm.smax.i32(i32 %7, i32 4)
  %9 = tail call i32 @llvm.umin.i32(i32 %8, i32 128)
  store i32 %9, ptr %5, align 4, !tbaa !27
  %10 = getelementptr inbounds nuw i8, ptr %3, i64 66600
  %11 = load i32, ptr %10, align 8, !tbaa !28
  %12 = and i32 %11, 15
  %.not = icmp eq i32 %12, 0
  br i1 %.not, label %14, label %13

13:                                               ; preds = %1
  tail call void (ptr, i32, ptr, ...) @av_log(ptr noundef nonnull %0, i32 noundef 16, ptr noundef nonnull @.str.41) #10
  br label %53

14:                                               ; preds = %1
  %15 = getelementptr inbounds nuw i8, ptr %3, i64 66728
  %16 = load ptr, ptr %15, align 8, !tbaa !29
  %.not32 = icmp eq ptr %16, null
  br i1 %.not32, label %._crit_edge, label %17

._crit_edge:                                      ; preds = %14
  %.phi.trans.insert = getelementptr inbounds nuw i8, ptr %3, i64 66672
  %.pre = load ptr, ptr %.phi.trans.insert, align 8, !tbaa !30
  br label %20

17:                                               ; preds = %14
  %18 = tail call ptr @avpriv_fopen_utf8(ptr noundef nonnull %16, ptr noundef nonnull @.str.9) #10
  %19 = getelementptr inbounds nuw i8, ptr %3, i64 66672
  store ptr %18, ptr %19, align 8, !tbaa !30
  br label %20

20:                                               ; preds = %._crit_edge, %17
  %21 = phi ptr [ %.pre, %._crit_edge ], [ %18, %17 ]
  %.not33 = icmp eq ptr %21, null
  br i1 %.not33, label %24, label %22

22:                                               ; preds = %20
  %23 = tail call i64 @fwrite(ptr noundef nonnull @.str.42, i64 noundef 1, i64 noundef 104, ptr noundef nonnull %21)
  br label %24

24:                                               ; preds = %22, %20
  %25 = getelementptr inbounds nuw i8, ptr %3, i64 66720
  %26 = load i32, ptr %25, align 8, !tbaa !31
  %27 = icmp sgt i32 %26, 0
  br i1 %27, label %28, label %._crit_edge34

._crit_edge34:                                    ; preds = %24
  %.phi.trans.insert35 = getelementptr inbounds nuw i8, ptr %3, i64 66712
  %.pre36 = load i32, ptr %.phi.trans.insert35, align 8, !tbaa !32
  br label %34

28:                                               ; preds = %24
  %29 = and i32 %26, 15
  %30 = getelementptr inbounds nuw i8, ptr %3, i64 66712
  %31 = load i32, ptr %30, align 8, !tbaa !32
  %32 = add nsw i32 %31, %29
  store i32 %32, ptr %30, align 8, !tbaa !32
  %33 = and i32 %26, 2147483632
  store i32 %33, ptr %25, align 8, !tbaa !31
  br label %34

34:                                               ; preds = %._crit_edge34, %28
  %35 = phi i32 [ %32, %28 ], [ %.pre36, %._crit_edge34 ]
  %36 = phi i32 [ %33, %28 ], [ %26, %._crit_edge34 ]
  %37 = getelementptr inbounds nuw i8, ptr %3, i64 66744
  store ptr @deshake_transform_c, ptr %37, align 8, !tbaa !33
  %38 = getelementptr inbounds nuw i8, ptr %3, i64 66724
  %39 = load i32, ptr %38, align 4, !tbaa !34
  %40 = getelementptr inbounds nuw i8, ptr %3, i64 66716
  %41 = load i32, ptr %40, align 4, !tbaa !35
  %42 = load i32, ptr %10, align 8, !tbaa !28
  %43 = getelementptr inbounds nuw i8, ptr %3, i64 66604
  %44 = load i32, ptr %43, align 4, !tbaa !36
  %45 = getelementptr inbounds nuw i8, ptr %3, i64 66608
  %46 = load i32, ptr %45, align 8, !tbaa !37
  %47 = load i32, ptr %5, align 4, !tbaa !27
  %48 = shl nsw i32 %47, 1
  %49 = getelementptr inbounds nuw i8, ptr %3, i64 66616
  %50 = load i32, ptr %49, align 8, !tbaa !38
  %51 = getelementptr inbounds nuw i8, ptr %3, i64 66620
  %52 = load i32, ptr %51, align 4, !tbaa !39
  tail call void (ptr, i32, ptr, ...) @av_log(ptr noundef nonnull %0, i32 noundef 40, ptr noundef nonnull @.str.43, i32 noundef %36, i32 noundef %39, i32 noundef %35, i32 noundef %41, i32 noundef %42, i32 noundef %44, i32 noundef %46, i32 noundef %48, i32 noundef %50, i32 noundef %52) #10
  br label %53

53:                                               ; preds = %34, %13
  %.0 = phi i32 [ -1163346256, %13 ], [ 0, %34 ]
  ret i32 %.0
}